(dp0
Vartem
p1
ccollections
defaultdict
p2
(c__builtin__
int
p3
tp4
Rp5
Vewan
p6
I1
sVjisu
p7
I2
ssg6
g2
(g3
tp8
Rp9
Vartem
p10
I1
ssVjisu
p11
g2
(g3
tp12
Rp13
Vartme
p14
I1
ssg14
g2
(g3
tp15
Rp16
g11
I1
ss.