ccollections
OrderedDict
p0
((lp1
(lp2
Vartem
p3
accollections
defaultdict
p4
(c__builtin__
int
p5
tp6
Rp7
Vcaterfly
p8
I1
sVjisu
p9
I10
saa(lp10
Vstanly
p11
ag4
(g5
tp12
Rp13
Vmanly
p14
I3
saa(lp15
Vjisu
p16
ag4
(g5
tp17
Rp18
Vartem
p19
I6
saa(lp20
g8
ag4
(g5
tp21
Rp22
Vartem
p23
I1
saatp24
Rp25
.