ccollections
OrderedDict
p0
((lp1
(lp2
Vartem
p3
accollections
defaultdict
p4
(c__builtin__
int
p5
tp6
Rp7
Vjisu
p8
I5
saa(lp9
Vstanly
p10
ag4
(g5
tp11
Rp12
Vmanly
p13
I3
saa(lp14
Vjisu
p15
ag4
(g5
tp16
Rp17
Vartem
p18
I1
saatp19
Rp20
.